target datalayout = "e-m:e-p270:32:32-p271:32:32-p272:64:64-i64:64-i128:128-f80:128-n8:16:32:64-S128"
target triple = "x86_64-pc-linux-gnu"

%struct.AVFilterContext = type { ptr, ptr, ptr, ptr, ptr, i32, ptr, ptr, i32, ptr, ptr, i32, i32, ptr, ptr, ptr, ptr, i32, ptr, i32, i32 }
%struct.W3FDIFContext = type { ptr, i32, i32, i32, i32, [4 x i32], [4 x i32], i32, i32, i32, ptr, ptr, ptr, ptr, i32, i32, %struct.W3FDIFDSPContext }
%struct.W3FDIFDSPContext = type { ptr, ptr, ptr, ptr, ptr }
%struct.AVFilterLink = type { ptr, ptr, ptr, ptr, i32, i32, i32, i32, %struct.AVRational, i32, i32, i32, %struct.AVChannelLayout, %struct.AVRational, ptr, i32, %struct.AVFilterFormatsConfig, %struct.AVFilterFormatsConfig }
%struct.AVChannelLayout = type { i32, i32, %union.anon.1, ptr }
%union.anon.1 = type { i64 }
%struct.AVRational = type { i32, i32 }
%struct.AVFilterFormatsConfig = type { ptr, ptr, ptr, ptr, ptr }
%struct.AVFrame = type { [8 x ptr], [8 x i32], ptr, i32, i32, i32, i32, i32, %struct.AVRational, i64, i64, %struct.AVRational, i32, ptr, i32, i32, [8 x ptr], ptr, i32, ptr, i32, i32, i32, i32, i32, i32, i32, i64, ptr, i32, ptr, ptr, i64, i64, i64, i64, ptr, %struct.AVChannelLayout, i64 }
%struct.ThreadData = type { ptr, ptr, ptr }

; Function Attrs: nounwind uwtable
define internal i32 @filter(ptr noundef %0, i32 noundef %1) #2 {
  %3 = alloca i32, align 4
  %4 = alloca ptr, align 8
  %5 = alloca i32, align 4
  %6 = alloca ptr, align 8
  %7 = alloca ptr, align 8
  %8 = alloca ptr, align 8
  %9 = alloca ptr, align 8
  %10 = alloca %struct.ThreadData, align 8
  %11 = alloca i32, align 4
  %12 = alloca i64, align 8
  %13 = alloca i64, align 8
  store ptr %0, ptr %4, align 8, !tbaa !4
  store i32 %1, ptr %5, align 4, !tbaa !24
  call void @llvm.lifetime.start.p0(i64 8, ptr %6) #10
  %14 = load ptr, ptr %4, align 8, !tbaa !4
  %15 = getelementptr inbounds nuw %struct.AVFilterContext, ptr %14, i32 0, i32 9
  %16 = load ptr, ptr %15, align 8, !tbaa !9
  store ptr %16, ptr %6, align 8, !tbaa !22
  call void @llvm.lifetime.start.p0(i64 8, ptr %7) #10
  %17 = load ptr, ptr %4, align 8, !tbaa !4
  %18 = getelementptr inbounds nuw %struct.AVFilterContext, ptr %17, i32 0, i32 7
  %19 = load ptr, ptr %18, align 8, !tbaa !56
  %20 = getelementptr inbounds ptr, ptr %19, i64 0
  %21 = load ptr, ptr %20, align 8, !tbaa !33
  store ptr %21, ptr %7, align 8, !tbaa !33
  call void @llvm.lifetime.start.p0(i64 8, ptr %8) #10
  call void @llvm.lifetime.start.p0(i64 8, ptr %9) #10
  call void @llvm.lifetime.start.p0(i64 24, ptr %10) #10
  %22 = load ptr, ptr %7, align 8, !tbaa !33
  %23 = load ptr, ptr %7, align 8, !tbaa !33
  %24 = getelementptr inbounds nuw %struct.AVFilterLink, ptr %23, i32 0, i32 6
  %25 = load i32, ptr %24, align 8, !tbaa !61
  %26 = load ptr, ptr %7, align 8, !tbaa !33
  %27 = getelementptr inbounds nuw %struct.AVFilterLink, ptr %26, i32 0, i32 7
  %28 = load i32, ptr %27, align 4, !tbaa !64
  %29 = call ptr @ff_get_video_buffer(ptr noundef %22, i32 noundef %25, i32 noundef %28)
  store ptr %29, ptr %8, align 8, !tbaa !35
  %30 = load ptr, ptr %8, align 8, !tbaa !35
  %31 = icmp ne ptr %30, null
  br i1 %31, label %33, label %32

32:                                               ; preds = %2
  store i32 -12, ptr %3, align 4
  store i32 1, ptr %11, align 4
  br label %143

33:                                               ; preds = %2
  %34 = load ptr, ptr %8, align 8, !tbaa !35
  %35 = load ptr, ptr %6, align 8, !tbaa !22
  %36 = getelementptr inbounds nuw %struct.W3FDIFContext, ptr %35, i32 0, i32 11
  %37 = load ptr, ptr %36, align 8, !tbaa !44
  %38 = call i32 @av_frame_copy_props(ptr noundef %34, ptr noundef %37)
  %39 = load ptr, ptr %8, align 8, !tbaa !35
  %40 = getelementptr inbounds nuw %struct.AVFrame, ptr %39, i32 0, i32 21
  %41 = load i32, ptr %40, align 4, !tbaa !48
  %42 = and i32 %41, -9
  store i32 %42, ptr %40, align 4, !tbaa !48
  %43 = load i32, ptr %5, align 4, !tbaa !24
  %44 = icmp ne i32 %43, 0
  br i1 %44, label %56, label %45

45:                                               ; preds = %33
  %46 = load ptr, ptr %8, align 8, !tbaa !35
  %47 = getelementptr inbounds nuw %struct.AVFrame, ptr %46, i32 0, i32 9
  %48 = load i64, ptr %47, align 8, !tbaa !55
  %49 = icmp ne i64 %48, -9223372036854775808
  br i1 %49, label %50, label %55

50:                                               ; preds = %45
  %51 = load ptr, ptr %8, align 8, !tbaa !35
  %52 = getelementptr inbounds nuw %struct.AVFrame, ptr %51, i32 0, i32 9
  %53 = load i64, ptr %52, align 8, !tbaa !55
  %54 = mul nsw i64 %53, 2
  store i64 %54, ptr %52, align 8, !tbaa !55
  br label %55

55:                                               ; preds = %50, %45
  br label %82

56:                                               ; preds = %33
  call void @llvm.lifetime.start.p0(i64 8, ptr %12) #10
  %57 = load ptr, ptr %6, align 8, !tbaa !22
  %58 = getelementptr inbounds nuw %struct.W3FDIFContext, ptr %57, i32 0, i32 11
  %59 = load ptr, ptr %58, align 8, !tbaa !44
  %60 = getelementptr inbounds nuw %struct.AVFrame, ptr %59, i32 0, i32 9
  %61 = load i64, ptr %60, align 8, !tbaa !55
  store i64 %61, ptr %12, align 8, !tbaa !77
  call void @llvm.lifetime.start.p0(i64 8, ptr %13) #10
  %62 = load ptr, ptr %6, align 8, !tbaa !22
  %63 = getelementptr inbounds nuw %struct.W3FDIFContext, ptr %62, i32 0, i32 12
  %64 = load ptr, ptr %63, align 8, !tbaa !46
  %65 = getelementptr inbounds nuw %struct.AVFrame, ptr %64, i32 0, i32 9
  %66 = load i64, ptr %65, align 8, !tbaa !55
  store i64 %66, ptr %13, align 8, !tbaa !77
  %67 = load i64, ptr %13, align 8, !tbaa !77
  %68 = icmp ne i64 %67, -9223372036854775808
  br i1 %68, label %69, label %78

69:                                               ; preds = %56
  %70 = load i64, ptr %12, align 8, !tbaa !77
  %71 = icmp ne i64 %70, -9223372036854775808
  br i1 %71, label %72, label %78

72:                                               ; preds = %69
  %73 = load i64, ptr %12, align 8, !tbaa !77
  %74 = load i64, ptr %13, align 8, !tbaa !77
  %75 = add nsw i64 %73, %74
  %76 = load ptr, ptr %8, align 8, !tbaa !35
  %77 = getelementptr inbounds nuw %struct.AVFrame, ptr %76, i32 0, i32 9
  store i64 %75, ptr %77, align 8, !tbaa !55
  br label %81

78:                                               ; preds = %69, %56
  %79 = load ptr, ptr %8, align 8, !tbaa !35
  %80 = getelementptr inbounds nuw %struct.AVFrame, ptr %79, i32 0, i32 9
  store i64 -9223372036854775808, ptr %80, align 8, !tbaa !55
  br label %81

81:                                               ; preds = %78, %72
  call void @llvm.lifetime.end.p0(i64 8, ptr %13) #10
  call void @llvm.lifetime.end.p0(i64 8, ptr %12) #10
  br label %82

82:                                               ; preds = %81, %55
  %83 = load ptr, ptr %6, align 8, !tbaa !22
  %84 = getelementptr inbounds nuw %struct.W3FDIFContext, ptr %83, i32 0, i32 7
  %85 = load i32, ptr %84, align 8, !tbaa !78
  %86 = icmp ne i32 %85, 0
  br i1 %86, label %87, label %91

87:                                               ; preds = %82
  %88 = load ptr, ptr %6, align 8, !tbaa !22
  %89 = getelementptr inbounds nuw %struct.W3FDIFContext, ptr %88, i32 0, i32 12
  %90 = load ptr, ptr %89, align 8, !tbaa !46
  br label %95

91:                                               ; preds = %82
  %92 = load ptr, ptr %6, align 8, !tbaa !22
  %93 = getelementptr inbounds nuw %struct.W3FDIFContext, ptr %92, i32 0, i32 10
  %94 = load ptr, ptr %93, align 8, !tbaa !45
  br label %95

95:                                               ; preds = %91, %87
  %96 = phi ptr [ %90, %87 ], [ %94, %91 ]
  store ptr %96, ptr %9, align 8, !tbaa !35
  %97 = load ptr, ptr %8, align 8, !tbaa !35
  %98 = getelementptr inbounds nuw %struct.ThreadData, ptr %10, i32 0, i32 0
  store ptr %97, ptr %98, align 8, !tbaa !79
  %99 = load ptr, ptr %6, align 8, !tbaa !22
  %100 = getelementptr inbounds nuw %struct.W3FDIFContext, ptr %99, i32 0, i32 11
  %101 = load ptr, ptr %100, align 8, !tbaa !44
  %102 = getelementptr inbounds nuw %struct.ThreadData, ptr %10, i32 0, i32 1
  store ptr %101, ptr %102, align 8, !tbaa !81
  %103 = load ptr, ptr %9, align 8, !tbaa !35
  %104 = getelementptr inbounds nuw %struct.ThreadData, ptr %10, i32 0, i32 2
  store ptr %103, ptr %104, align 8, !tbaa !82
  %105 = load ptr, ptr %4, align 8, !tbaa !4
  %106 = load ptr, ptr %6, align 8, !tbaa !22
  %107 = getelementptr inbounds nuw %struct.W3FDIFContext, ptr %106, i32 0, i32 6
  %108 = getelementptr inbounds [4 x i32], ptr %107, i64 0, i64 1
  %109 = load i32, ptr %108, align 4, !tbaa !24
  %110 = load ptr, ptr %6, align 8, !tbaa !22
  %111 = getelementptr inbounds nuw %struct.W3FDIFContext, ptr %110, i32 0, i32 14
  %112 = load i32, ptr %111, align 8, !tbaa !25
  %113 = icmp sgt i32 %109, %112
  br i1 %113, label %114, label %118

114:                                              ; preds = %95
  %115 = load ptr, ptr %6, align 8, !tbaa !22
  %116 = getelementptr inbounds nuw %struct.W3FDIFContext, ptr %115, i32 0, i32 14
  %117 = load i32, ptr %116, align 8, !tbaa !25
  br label %123

118:                                              ; preds = %95
  %119 = load ptr, ptr %6, align 8, !tbaa !22
  %120 = getelementptr inbounds nuw %struct.W3FDIFContext, ptr %119, i32 0, i32 6
  %121 = getelementptr inbounds [4 x i32], ptr %120, i64 0, i64 1
  %122 = load i32, ptr %121, align 4, !tbaa !24
  br label %123

123:                                              ; preds = %118, %114
  %124 = phi i32 [ %117, %114 ], [ %122, %118 ]
  %125 = call i32 @ff_filter_execute(ptr noundef %105, ptr noundef @deinterlace_slice, ptr noundef %10, ptr noundef null, i32 noundef %124)
  %126 = load ptr, ptr %6, align 8, !tbaa !22
  %127 = getelementptr inbounds nuw %struct.W3FDIFContext, ptr %126, i32 0, i32 2
  %128 = load i32, ptr %127, align 4, !tbaa !57
  %129 = icmp ne i32 %128, 0
  br i1 %129, label %130, label %139

130:                                              ; preds = %123
  %131 = load ptr, ptr %6, align 8, !tbaa !22
  %132 = getelementptr inbounds nuw %struct.W3FDIFContext, ptr %131, i32 0, i32 7
  %133 = load i32, ptr %132, align 8, !tbaa !78
  %134 = icmp ne i32 %133, 0
  %135 = xor i1 %134, true
  %136 = zext i1 %135 to i32
  %137 = load ptr, ptr %6, align 8, !tbaa !22
  %138 = getelementptr inbounds nuw %struct.W3FDIFContext, ptr %137, i32 0, i32 7
  store i32 %136, ptr %138, align 8, !tbaa !78
  br label %139

139:                                              ; preds = %130, %123
  %140 = load ptr, ptr %7, align 8, !tbaa !33
  %141 = load ptr, ptr %8, align 8, !tbaa !35
  %142 = call i32 @ff_filter_frame(ptr noundef %140, ptr noundef %141)
  store i32 %142, ptr %3, align 4
  store i32 1, ptr %11, align 4
  br label %143

143:                                              ; preds = %139, %32
  call void @llvm.lifetime.end.p0(i64 24, ptr %10) #10
  call void @llvm.lifetime.end.p0(i64 8, ptr %9) #10
  call void @llvm.lifetime.end.p0(i64 8, ptr %8) #10
  call void @llvm.lifetime.end.p0(i64 8, ptr %7) #10
  call void @llvm.lifetime.end.p0(i64 8, ptr %6) #10
  %144 = load i32, ptr %3, align 4
  ret i32 %144
}