; Function Attrs: nounwind uwtable
define internal fastcc i32 @filter(ptr noundef %0, i32 noundef range(i32 0, 2) %1) unnamed_addr #2 {
  %3 = alloca %struct.ThreadData, align 8
  %4 = getelementptr inbounds nuw i8, ptr %0, i64 72
  %5 = load ptr, ptr %4, align 8, !tbaa !4
  %6 = getelementptr inbounds nuw i8, ptr %0, i64 56
  %7 = load ptr, ptr %6, align 8, !tbaa !49
  %8 = load ptr, ptr %7, align 8, !tbaa !50
  call void @llvm.lifetime.start.p0(i64 24, ptr nonnull %3) #11
  %9 = getelementptr inbounds nuw i8, ptr %8, i64 40
  %10 = load i32, ptr %9, align 8, !tbaa !54
  %11 = getelementptr inbounds nuw i8, ptr %8, i64 44
  %12 = load i32, ptr %11, align 4, !tbaa !55
  %13 = tail call ptr @ff_get_video_buffer(ptr noundef %8, i32 noundef %10, i32 noundef %12) #11
  %.not = icmp eq ptr %13, null
  br i1 %.not, label %61, label %14

14:                                               ; preds = %2
  %15 = getelementptr inbounds nuw i8, ptr %5, i64 80
  %16 = load ptr, ptr %15, align 8, !tbaa !37
  %17 = tail call i32 @av_frame_copy_props(ptr noundef nonnull %13, ptr noundef %16) #11
  %18 = getelementptr inbounds nuw i8, ptr %13, i64 276
  %19 = load i32, ptr %18, align 4, !tbaa !41
  %20 = and i32 %19, -9
  store i32 %20, ptr %18, align 4, !tbaa !41
  %.not43 = icmp eq i32 %1, 0
  br i1 %.not43, label %21, label %26

21:                                               ; preds = %14
  %22 = getelementptr inbounds nuw i8, ptr %13, i64 136
  %23 = load i64, ptr %22, align 8, !tbaa !48
  %.not44 = icmp eq i64 %23, -9223372036854775808
  br i1 %.not44, label %41, label %24

24:                                               ; preds = %21
  %25 = shl nsw i64 %23, 1
  store i64 %25, ptr %22, align 8, !tbaa !48
  br label %41

26:                                               ; preds = %14
  %27 = load ptr, ptr %15, align 8, !tbaa !37
  %28 = getelementptr inbounds nuw i8, ptr %27, i64 136
  %29 = load i64, ptr %28, align 8, !tbaa !48
  %30 = getelementptr inbounds nuw i8, ptr %5, i64 88
  %31 = load ptr, ptr %30, align 8, !tbaa !39
  %32 = getelementptr inbounds nuw i8, ptr %31, i64 136
  %33 = load i64, ptr %32, align 8, !tbaa !48
  %34 = icmp ne i64 %33, -9223372036854775808
  %35 = icmp ne i64 %29, -9223372036854775808
  %or.cond = select i1 %34, i1 %35, i1 false
  br i1 %or.cond, label %36, label %39

36:                                               ; preds = %26
  %37 = add nsw i64 %33, %29
  %38 = getelementptr inbounds nuw i8, ptr %13, i64 136
  store i64 %37, ptr %38, align 8, !tbaa !48
  br label %41

39:                                               ; preds = %26
  %40 = getelementptr inbounds nuw i8, ptr %13, i64 136
  store i64 -9223372036854775808, ptr %40, align 8, !tbaa !48
  br label %41

41:                                               ; preds = %36, %39, %21, %24
  %42 = getelementptr inbounds nuw i8, ptr %5, i64 56
  %43 = load i32, ptr %42, align 8, !tbaa !71
  %.not45 = icmp eq i32 %43, 0
  %.in.v = select i1 %.not45, i64 72, i64 88
  %.in = getelementptr inbounds nuw i8, ptr %5, i64 %.in.v
  %44 = load ptr, ptr %.in, align 8, !tbaa !72
  store ptr %13, ptr %3, align 8, !tbaa !73
  %45 = load ptr, ptr %15, align 8, !tbaa !37
  %46 = getelementptr inbounds nuw i8, ptr %3, i64 8
  store ptr %45, ptr %46, align 8, !tbaa !75
  %47 = getelementptr inbounds nuw i8, ptr %3, i64 16
  store ptr %44, ptr %47, align 8, !tbaa !76
  %48 = getelementptr inbounds nuw i8, ptr %5, i64 44
  %49 = load i32, ptr %48, align 4, !tbaa !58
  %50 = getelementptr inbounds nuw i8, ptr %5, i64 104
  %51 = load i32, ptr %50, align 8, !tbaa !20
  %52 = tail call i32 @llvm.smin.i32(i32 %49, i32 %51)
  %53 = call i32 @ff_filter_execute(ptr noundef nonnull %0, ptr noundef nonnull @deinterlace_slice, ptr noundef nonnull %3, ptr noundef null, i32 noundef %52) #11
  %54 = getelementptr inbounds nuw i8, ptr %5, i64 12
  %55 = load i32, ptr %54, align 4, !tbaa !52
  %.not46 = icmp eq i32 %55, 0
  br i1 %.not46, label %59, label %56

56:                                               ; preds = %41
  %57 = load i32, ptr %42, align 8, !tbaa !71
  %.not47 = icmp eq i32 %57, 0
  %58 = zext i1 %.not47 to i32
  store i32 %58, ptr %42, align 8, !tbaa !71
  br label %59

59:                                               ; preds = %56, %41
  %60 = call i32 @ff_filter_frame(ptr noundef nonnull %8, ptr noundef nonnull %13) #11
  br label %61

61:                                               ; preds = %2, %59
  %.0 = phi i32 [ %60, %59 ], [ -12, %2 ]
  call void @llvm.lifetime.end.p0(i64 24, ptr nonnull %3) #11
  ret i32 %.0
}